; Function Attrs: mustprogress nounwind uwtable
define hidden noundef i64 @_ZN16JfrTimeConverter20nanos_to_countertimeElb(i64 noundef %0, i1 noundef zeroext %1) local_unnamed_addr #0 align 2 {
  %3 = icmp slt i64 %0, 1
  br i1 %3, label %23, label %4

4:                                                ; preds = %2
  %5 = uitofp nneg i64 %0 to double
  %.b1.i = load i1, ptr @_ZL11initialized, align 1
  br i1 %.b1.i, label %_ZN16JfrTimeConverter26nano_to_counter_multiplierEb.exit, label %6

6:                                                ; preds = %4
  %7 = tail call noundef i64 @_ZN2os17elapsed_frequencyEv() #2
  %8 = sitofp i64 %7 to double
  %9 = fdiv double %8, 1.000000e+09
  store double %9, ptr @_ZL26nanos_to_os_counter_factor, align 8
  %10 = fdiv double 1.000000e+00, %9
  store double %10, ptr @_ZL26os_counter_to_nanos_factor, align 8
  %11 = load i8, ptr @_ZN7JfrTime11_ft_enabledE, align 1
  %12 = trunc i8 %11 to i1
  br i1 %12, label %13, label %_ZN16JfrTimeConverter10initializeEv.exit.i

13:                                               ; preds = %6
  %14 = tail call noundef i64 @_ZN7JfrTime9frequencyEv() #2
  %15 = sitofp i64 %14 to double
  %16 = fdiv double %15, 1.000000e+09
  store double %16, ptr @_ZL26nanos_to_ft_counter_factor, align 8
  %17 = fdiv double 1.000000e+00, %16
  store double %17, ptr @_ZL26ft_counter_to_nanos_factor, align 8
  br label %_ZN16JfrTimeConverter10initializeEv.exit.i

_ZN16JfrTimeConverter10initializeEv.exit.i:       ; preds = %13, %6
  store i1 true, ptr @_ZL11initialized, align 1
  br label %_ZN16JfrTimeConverter26nano_to_counter_multiplierEb.exit

_ZN16JfrTimeConverter26nano_to_counter_multiplierEb.exit: ; preds = %4, %_ZN16JfrTimeConverter10initializeEv.exit.i
  %18 = load i8, ptr @_ZN7JfrTime11_ft_enabledE, align 1
  %19 = trunc i8 %18 to i1
  %.not.i = xor i1 %19, true
  %brmerge.i = or i1 %.not.i, %1
  %_ZL26nanos_to_os_counter_factor.val.i = load double, ptr @_ZL26nanos_to_os_counter_factor, align 8
  %_ZL26nanos_to_ft_counter_factor.val.i = load double, ptr @_ZL26nanos_to_ft_counter_factor, align 8
  %20 = select i1 %brmerge.i, double %_ZL26nanos_to_os_counter_factor.val.i, double %_ZL26nanos_to_ft_counter_factor.val.i
  %21 = fmul double %20, %5
  %22 = fptosi double %21 to i64
  br label %23

23:                                               ; preds = %2, %_ZN16JfrTimeConverter26nano_to_counter_multiplierEb.exit
  %24 = phi i64 [ %22, %_ZN16JfrTimeConverter26nano_to_counter_multiplierEb.exit ], [ 0, %2 ]
  ret i64 %24
}